target datalayout = "e-m:e-p270:32:32-p271:32:32-p272:64:64-i64:64-i128:128-f80:128-n8:16:32:64-S128"
target triple = "x86_64-pc-linux-gnu"

%struct.CONF_VALUE = type { ptr, ptr, ptr }

@.str.13 = private unnamed_addr constant [6 x i8] c"name=\00", align 1
@.str.14 = private unnamed_addr constant [9 x i8] c", value=\00", align 1

; Function Attrs: nounwind uwtable
define i32 @X509V3_get_value_int(ptr noundef %0, ptr noundef %1) #0 {
  %3 = alloca i32, align 4
  %4 = alloca ptr, align 8
  %5 = alloca ptr, align 8
  %6 = alloca ptr, align 8
  %7 = alloca i32, align 4
  store ptr %0, ptr %4, align 8, !tbaa !12
  store ptr %1, ptr %5, align 8, !tbaa !32
  call void @llvm.lifetime.start.p0(i64 8, ptr %6) #8
  %8 = load ptr, ptr %4, align 8, !tbaa !12
  %9 = getelementptr inbounds nuw %struct.CONF_VALUE, ptr %8, i32 0, i32 2
  %10 = load ptr, ptr %9, align 8, !tbaa !20
  %11 = call ptr @s2i_ASN1_INTEGER(ptr noundef null, ptr noundef %10)
  store ptr %11, ptr %6, align 8, !tbaa !23
  %12 = icmp eq ptr %11, null
  br i1 %12, label %13, label %20

13:                                               ; preds = %2
  %14 = load ptr, ptr %4, align 8, !tbaa !12
  %15 = getelementptr inbounds nuw %struct.CONF_VALUE, ptr %14, i32 0, i32 1
  %16 = load ptr, ptr %15, align 8, !tbaa !19
  %17 = load ptr, ptr %4, align 8, !tbaa !12
  %18 = getelementptr inbounds nuw %struct.CONF_VALUE, ptr %17, i32 0, i32 2
  %19 = load ptr, ptr %18, align 8, !tbaa !20
  call void (i32, ...) @ERR_add_error_data(i32 noundef 4, ptr noundef @.str.13, ptr noundef %16, ptr noundef @.str.14, ptr noundef %19)
  store i32 0, ptr %3, align 4
  store i32 1, ptr %7, align 4
  br label %23

20:                                               ; preds = %2
  %21 = load ptr, ptr %6, align 8, !tbaa !23
  %22 = load ptr, ptr %5, align 8, !tbaa !32
  store ptr %21, ptr %22, align 8, !tbaa !23
  store i32 1, ptr %3, align 4
  store i32 1, ptr %7, align 4
  br label %23

23:                                               ; preds = %20, %13
  call void @llvm.lifetime.end.p0(i64 8, ptr %6) #8
  %24 = load i32, ptr %3, align 4
  ret i32 %24
}