; Function Attrs: nounwind uwtable
define range(i32 0, 2) i32 @X509V3_get_value_int(ptr noundef readonly captures(none) %0, ptr noundef writeonly captures(none) %1) local_unnamed_addr #0 {
  %3 = getelementptr inbounds nuw i8, ptr %0, i64 16
  %4 = load ptr, ptr %3, align 8, !tbaa !12
  %5 = tail call ptr @s2i_ASN1_INTEGER(ptr poison, ptr noundef %4)
  %6 = icmp eq ptr %5, null
  br i1 %6, label %7, label %11

7:                                                ; preds = %2
  %8 = getelementptr inbounds nuw i8, ptr %0, i64 8
  %9 = load ptr, ptr %8, align 8, !tbaa !11
  %10 = load ptr, ptr %3, align 8, !tbaa !12
  tail call void (i32, ...) @ERR_add_error_data(i32 noundef 4, ptr noundef nonnull @.str.13, ptr noundef %9, ptr noundef nonnull @.str.14, ptr noundef %10) #12
  br label %12

11:                                               ; preds = %2
  store ptr %5, ptr %1, align 8, !tbaa !21
  br label %12

12:                                               ; preds = %11, %7
  %.0 = phi i32 [ 0, %7 ], [ 1, %11 ]
  ret i32 %.0
}